; Function Attrs: mustprogress uwtable
define hidden void @_ZN4cvc58internal6theory6arrays20getMostFrequentValueENS0_12NodeTemplateILb0EEE(ptr noalias sret(%"class.cvc5::internal::NodeTemplate") align 8 %agg.result, ptr nocapture noundef readonly %store) local_unnamed_addr #3 personality ptr @__gxx_personality_v0 {
entry:
  %ref.tmp.i.i = alloca %"class.cvc5::internal::expr::Attribute", align 1
  %call.i = tail call noundef ptr @_ZN4cvc58internal11NodeManager9currentNMEv(), !noalias !4
  %0 = load ptr, ptr %store, align 8, !noalias !4
  call void @llvm.lifetime.start.p0(i64 1, ptr nonnull %ref.tmp.i.i), !noalias !4
  %d_attrManager.i.i = getelementptr inbounds i8, ptr %call.i, i64 80
  %1 = load ptr, ptr %d_attrManager.i.i, align 8, !noalias !7
  call void @_ZNK4cvc58internal4expr4attr16AttributeManager12getAttributeINS1_9AttributeINS0_6theory6arrays4attr33ArrayConstantMostFrequentValueTagENS0_12NodeTemplateILb1EEEEEEENT_10value_typeEPNS1_9NodeValueERKSD_(ptr sret(%"class.cvc5::internal::NodeTemplate") align 8 %agg.result, ptr noundef nonnull align 8 dereferenceable(344) %1, ptr noundef %0, ptr noundef nonnull align 1 dereferenceable(1) %ref.tmp.i.i)
  call void @llvm.lifetime.end.p0(i64 1, ptr nonnull %ref.tmp.i.i), !noalias !4
  ret void
}